target datalayout = "e-m:e-p270:32:32-p271:32:32-p272:64:64-i64:64-i128:128-f80:128-n8:16:32:64-S128"
target triple = "x86_64-pc-linux-gnu"

%class.btCollisionObject = type <{ ptr, %class.btTransform, %class.btTransform, %class.btVector3, %class.btVector3, %class.btVector3, i32, float, ptr, ptr, ptr, ptr, i32, i32, i32, i32, i32, float, float, float, float, float, float, float, i32, [4 x i8], ptr, i32, i32, i32, float, float, float, i32, [4 x i8], %class.btAlignedObjectArray, i32, %class.btVector3, [4 x i8] }>
%class.btTransform = type { %class.btMatrix3x3, %class.btVector3 }
%class.btMatrix3x3 = type { [3 x %class.btVector3] }
%class.btAlignedObjectArray = type <{ [4 x i8], i32, i32, [4 x i8], ptr, i8, [7 x i8] }>
%class.btVector3 = type { [4 x float] }

; Function Attrs: mustprogress nounwind uwtable
define linkonce_odr dso_local noundef float @_ZNK17btCollisionObject11getFrictionEv(ptr noundef nonnull align 8 dereferenceable(372) %0) #1 comdat align 2 {
  %2 = alloca ptr, align 8
  store ptr %0, ptr %2, align 8, !tbaa !12
  %3 = load ptr, ptr %2, align 8
  %4 = getelementptr inbounds nuw %class.btCollisionObject, ptr %3, i32 0, i32 18
  %5 = load float, ptr %4, align 8, !tbaa !27
  ret float %5
}

; Function Attrs: mustprogress nounwind uwtable
define linkonce_odr dso_local noundef float @_ZNK17btCollisionObject18getRollingFrictionEv(ptr noundef nonnull align 8 dereferenceable(372) %0) #1 comdat align 2 {
  %2 = alloca ptr, align 8
  store ptr %0, ptr %2, align 8, !tbaa !12
  %3 = load ptr, ptr %2, align 8
  %4 = getelementptr inbounds nuw %class.btCollisionObject, ptr %3, i32 0, i32 20
  %5 = load float, ptr %4, align 8, !tbaa !16
  ret float %5
}

; Function Attrs: mustprogress uwtable
define dso_local noundef float @_ZN16btManifoldResult32calculateCombinedRollingFrictionEPK17btCollisionObjectS2_(ptr noundef %0, ptr noundef %1) #2 align 2 {
  %3 = alloca ptr, align 8
  %4 = alloca ptr, align 8
  %5 = alloca float, align 4
  %6 = alloca float, align 4
  store ptr %0, ptr %3, align 8, !tbaa !12
  store ptr %1, ptr %4, align 8, !tbaa !12
  call void @llvm.lifetime.start.p0(i64 4, ptr %5) #14
  %7 = load ptr, ptr %3, align 8, !tbaa !12
  %8 = call noundef float @_ZNK17btCollisionObject18getRollingFrictionEv(ptr noundef nonnull align 8 dereferenceable(372) %7)
  %9 = load ptr, ptr %4, align 8, !tbaa !12
  %10 = call noundef float @_ZNK17btCollisionObject11getFrictionEv(ptr noundef nonnull align 8 dereferenceable(372) %9)
  %11 = load ptr, ptr %4, align 8, !tbaa !12
  %12 = call noundef float @_ZNK17btCollisionObject18getRollingFrictionEv(ptr noundef nonnull align 8 dereferenceable(372) %11)
  %13 = load ptr, ptr %3, align 8, !tbaa !12
  %14 = call noundef float @_ZNK17btCollisionObject11getFrictionEv(ptr noundef nonnull align 8 dereferenceable(372) %13)
  %15 = fmul float %12, %14
  %16 = call float @llvm.fmuladd.f32(float %8, float %10, float %15)
  store float %16, ptr %5, align 4, !tbaa !14
  call void @llvm.lifetime.start.p0(i64 4, ptr %6) #14
  store float 1.000000e+01, ptr %6, align 4, !tbaa !14
  %17 = load float, ptr %5, align 4, !tbaa !14
  %18 = fcmp olt float %17, -1.000000e+01
  br i1 %18, label %19, label %20

19:                                               ; preds = %2
  store float -1.000000e+01, ptr %5, align 4, !tbaa !14
  br label %20

20:                                               ; preds = %19, %2
  %21 = load float, ptr %5, align 4, !tbaa !14
  %22 = fcmp ogt float %21, 1.000000e+01
  br i1 %22, label %23, label %24

23:                                               ; preds = %20
  store float 1.000000e+01, ptr %5, align 4, !tbaa !14
  br label %24

24:                                               ; preds = %23, %20
  %25 = load float, ptr %5, align 4, !tbaa !14
  call void @llvm.lifetime.end.p0(i64 4, ptr %6) #14
  call void @llvm.lifetime.end.p0(i64 4, ptr %5) #14
  ret float %25
}