; Function Attrs: mustprogress nofree norecurse nosync nounwind willreturn memory(argmem: read) uwtable
define dso_local noundef float @_ZN16btManifoldResult32calculateCombinedRollingFrictionEPK17btCollisionObjectS2_(ptr noundef readonly captures(none) %0, ptr noundef readonly captures(none) %1) #0 align 2 {
  %3 = getelementptr inbounds nuw i8, ptr %0, i64 256
  %4 = load float, ptr %3, align 8, !tbaa !21
  %5 = getelementptr inbounds nuw i8, ptr %1, i64 248
  %6 = load float, ptr %5, align 8, !tbaa !20
  %7 = getelementptr inbounds nuw i8, ptr %1, i64 256
  %8 = load float, ptr %7, align 8, !tbaa !21
  %9 = getelementptr inbounds nuw i8, ptr %0, i64 248
  %10 = load float, ptr %9, align 8, !tbaa !20
  %11 = fmul float %8, %10
  %12 = tail call float @llvm.fmuladd.f32(float %4, float %6, float %11)
  %13 = fcmp olt float %12, -1.000000e+01
  %.0 = select i1 %13, float -1.000000e+01, float %12
  %14 = fcmp ogt float %.0, 1.000000e+01
  %.1 = select i1 %14, float 1.000000e+01, float %.0
  ret float %.1
}